; Function Attrs: mustprogress uwtable
define void @_ZN5arrow3ipc8internal25CheckCompressionSupportedENS_11Compression4typeE(ptr dead_on_unwind noalias writable sret(%"class.arrow::Status") align 8 %0, i32 noundef %1) local_unnamed_addr #0 {
  %3 = and i32 %1, -3
  %or.cond = icmp eq i32 %3, 4
  br i1 %or.cond, label %5, label %4

4:                                                ; preds = %2
  tail call void @_ZN5arrow6Status8FromArgsIJRA44_KcEEES0_NS_10StatusCodeEDpOT_(ptr dead_on_unwind writable sret(%"class.arrow::Status") align 8 %0, i8 noundef signext 4, ptr noundef nonnull align 1 dereferenceable(44) @.str)
  br label %6

5:                                                ; preds = %2
  store ptr null, ptr %0, align 8, !tbaa !42, !alias.scope !45
  br label %6

6:                                                ; preds = %5, %4
  ret void
}